target datalayout = "e-m:e-p270:32:32-p271:32:32-p272:64:64-i64:64-i128:128-f80:128-n8:16:32:64-S128"
target triple = "x86_64-unknown-linux-gnu"

%"class.proxygen::HTTPSessionActivityTracker" = type { ptr, ptr, i64, i64, i64, i64 }

; Function Attrs: mustprogress nounwind uwtable
define void @_ZN8proxygen26HTTPSessionActivityTrackerC2EPN6wangle17ManagedConnectionEmm(ptr noundef nonnull align 8 dereferenceable(48) %this, ptr noundef %managedConnection, i64 noundef %ingressThreshold, i64 noundef %egressThreshold) unnamed_addr #4 align 2 {
entry:
  %this.addr = alloca ptr, align 8
  %managedConnection.addr = alloca ptr, align 8
  %ingressThreshold.addr = alloca i64, align 8
  %egressThreshold.addr = alloca i64, align 8
  store ptr %this, ptr %this.addr, align 8
  store ptr %managedConnection, ptr %managedConnection.addr, align 8
  store i64 %ingressThreshold, ptr %ingressThreshold.addr, align 8
  store i64 %egressThreshold, ptr %egressThreshold.addr, align 8
  %this1 = load ptr, ptr %this.addr, align 8
  store ptr getelementptr inbounds ({ [5 x ptr] }, ptr @_ZTVN8proxygen26HTTPSessionActivityTrackerE, i32 0, i32 0, i32 2), ptr %this1, align 8
  %managedConnection_ = getelementptr inbounds %"class.proxygen::HTTPSessionActivityTracker", ptr %this1, i32 0, i32 1
  %0 = load ptr, ptr %managedConnection.addr, align 8
  store ptr %0, ptr %managedConnection_, align 8
  %ingressSize_ = getelementptr inbounds %"class.proxygen::HTTPSessionActivityTracker", ptr %this1, i32 0, i32 2
  store i64 0, ptr %ingressSize_, align 8
  %sessionBodyOffset_ = getelementptr inbounds %"class.proxygen::HTTPSessionActivityTracker", ptr %this1, i32 0, i32 3
  store i64 0, ptr %sessionBodyOffset_, align 8
  %ingressThreshold_ = getelementptr inbounds %"class.proxygen::HTTPSessionActivityTracker", ptr %this1, i32 0, i32 4
  %1 = load i64, ptr %ingressThreshold.addr, align 8
  store i64 %1, ptr %ingressThreshold_, align 8
  %egressThreshold_ = getelementptr inbounds %"class.proxygen::HTTPSessionActivityTracker", ptr %this1, i32 0, i32 5
  %2 = load i64, ptr %egressThreshold.addr, align 8
  store i64 %2, ptr %egressThreshold_, align 8
  ret void
}