; Function Attrs: mustprogress nofree norecurse nosync nounwind willreturn memory(argmem: write) uwtable
define void @_ZN8proxygen26HTTPSessionActivityTrackerC2EPN6wangle17ManagedConnectionEmm(ptr nocapture noundef nonnull writeonly align 8 dereferenceable(48) %this, ptr noundef %managedConnection, i64 noundef %ingressThreshold, i64 noundef %egressThreshold) unnamed_addr #3 align 2 {
entry:
  store ptr getelementptr inbounds ({ [5 x ptr] }, ptr @_ZTVN8proxygen26HTTPSessionActivityTrackerE, i64 0, i32 0, i64 2), ptr %this, align 8
  %managedConnection_ = getelementptr inbounds i8, ptr %this, i64 8
  store ptr %managedConnection, ptr %managedConnection_, align 8
  %ingressSize_ = getelementptr inbounds i8, ptr %this, i64 16
  %ingressThreshold_ = getelementptr inbounds i8, ptr %this, i64 32
  tail call void @llvm.memset.p0.i64(ptr noundef nonnull align 8 dereferenceable(16) %ingressSize_, i8 0, i64 16, i1 false)
  store i64 %ingressThreshold, ptr %ingressThreshold_, align 8
  %egressThreshold_ = getelementptr inbounds i8, ptr %this, i64 40
  store i64 %egressThreshold, ptr %egressThreshold_, align 8
  ret void
}